target datalayout = "e-m:e-p270:32:32-p271:32:32-p272:64:64-i64:64-i128:128-f80:128-n8:16:32:64-S128"
target triple = "x86_64-pc-linux-gnu"

%struct.Abc_Obj_t_ = type { ptr, ptr, i32, i32, %struct.Vec_Int_t_, %struct.Vec_Int_t_, %union.anon, %union.anon.0 }
%struct.Vec_Int_t_ = type { i32, i32, ptr }
%union.anon = type { ptr }
%union.anon.0 = type { ptr }
%struct.Abc_Ntk_t_ = type { i32, i32, ptr, ptr, ptr, ptr, ptr, ptr, ptr, ptr, ptr, ptr, ptr, [11 x i32], i32, i32, i32, i32, ptr, i32, ptr, ptr, i32, i32, i32, double, i32, %struct.Vec_Int_t_, ptr, ptr, ptr, ptr, ptr, float, i32, ptr, ptr, ptr, ptr, ptr, ptr, ptr, ptr, ptr, ptr, ptr, ptr, ptr, ptr, ptr, ptr, ptr, ptr, ptr, ptr, ptr, ptr }

; Function Attrs: inlinehint nounwind uwtable
define internal ptr @Abc_NtkCreateNode(ptr noundef %0) #2 {
  %2 = alloca ptr, align 8
  store ptr %0, ptr %2, align 8, !tbaa !41
  %3 = load ptr, ptr %2, align 8, !tbaa !41
  %4 = call ptr @Abc_NtkCreateObj(ptr noundef %3, i32 noundef 7)
  ret ptr %4
}

; Function Attrs: nounwind uwtable
define ptr @Abc_NtkBddMux412(ptr noundef %0, ptr noundef %1) #0 {
  %3 = alloca ptr, align 8
  %4 = alloca ptr, align 8
  %5 = alloca ptr, align 8
  %6 = alloca ptr, align 8
  %7 = alloca ptr, align 8
  %8 = alloca ptr, align 8
  %9 = alloca ptr, align 8
  %10 = alloca ptr, align 8
  store ptr %0, ptr %3, align 8, !tbaa !41
  store ptr %1, ptr %4, align 8, !tbaa !53
  call void @llvm.lifetime.start.p0(i64 8, ptr %5) #12
  %11 = load ptr, ptr %3, align 8, !tbaa !41
  %12 = getelementptr inbounds nuw %struct.Abc_Ntk_t_, ptr %11, i32 0, i32 30
  %13 = load ptr, ptr %12, align 8, !tbaa !55
  store ptr %13, ptr %5, align 8, !tbaa !56
  call void @llvm.lifetime.start.p0(i64 8, ptr %6) #12
  call void @llvm.lifetime.start.p0(i64 8, ptr %7) #12
  call void @llvm.lifetime.start.p0(i64 8, ptr %8) #12
  call void @llvm.lifetime.start.p0(i64 8, ptr %9) #12
  call void @llvm.lifetime.start.p0(i64 8, ptr %10) #12
  %14 = load ptr, ptr %3, align 8, !tbaa !41
  %15 = call ptr @Abc_NtkCreateNode(ptr noundef %14)
  store ptr %15, ptr %6, align 8, !tbaa !3
  %16 = load ptr, ptr %6, align 8, !tbaa !3
  %17 = load ptr, ptr %4, align 8, !tbaa !53
  %18 = getelementptr inbounds ptr, ptr %17, i64 0
  %19 = load ptr, ptr %18, align 8, !tbaa !3
  call void @Abc_ObjAddFanin(ptr noundef %16, ptr noundef %19)
  %20 = load ptr, ptr %6, align 8, !tbaa !3
  %21 = load ptr, ptr %4, align 8, !tbaa !53
  %22 = getelementptr inbounds ptr, ptr %21, i64 1
  %23 = load ptr, ptr %22, align 8, !tbaa !3
  call void @Abc_ObjAddFanin(ptr noundef %20, ptr noundef %23)
  %24 = load ptr, ptr %6, align 8, !tbaa !3
  %25 = load ptr, ptr %4, align 8, !tbaa !53
  %26 = getelementptr inbounds ptr, ptr %25, i64 2
  %27 = load ptr, ptr %26, align 8, !tbaa !3
  call void @Abc_ObjAddFanin(ptr noundef %24, ptr noundef %27)
  %28 = load ptr, ptr %6, align 8, !tbaa !3
  %29 = load ptr, ptr %4, align 8, !tbaa !53
  %30 = getelementptr inbounds ptr, ptr %29, i64 3
  %31 = load ptr, ptr %30, align 8, !tbaa !3
  call void @Abc_ObjAddFanin(ptr noundef %28, ptr noundef %31)
  %32 = load ptr, ptr %5, align 8, !tbaa !56
  %33 = call ptr @Cudd_bddIthVar(ptr noundef %32, i32 noundef 0)
  store ptr %33, ptr %8, align 8, !tbaa !58
  %34 = load ptr, ptr %5, align 8, !tbaa !56
  %35 = load ptr, ptr %5, align 8, !tbaa !56
  %36 = call ptr @Cudd_bddIthVar(ptr noundef %35, i32 noundef 1)
  %37 = load ptr, ptr %5, align 8, !tbaa !56
  %38 = call ptr @Cudd_bddIthVar(ptr noundef %37, i32 noundef 3)
  %39 = load ptr, ptr %5, align 8, !tbaa !56
  %40 = call ptr @Cudd_bddIthVar(ptr noundef %39, i32 noundef 2)
  %41 = call ptr @Cudd_bddIte(ptr noundef %34, ptr noundef %36, ptr noundef %38, ptr noundef %40)
  store ptr %41, ptr %9, align 8, !tbaa !58
  %42 = load ptr, ptr %9, align 8, !tbaa !58
  call void @Cudd_Ref(ptr noundef %42)
  %43 = load ptr, ptr %5, align 8, !tbaa !56
  %44 = call ptr @Cudd_bddIthVar(ptr noundef %43, i32 noundef 1)
  store ptr %44, ptr %10, align 8, !tbaa !58
  %45 = load ptr, ptr %5, align 8, !tbaa !56
  %46 = load ptr, ptr %8, align 8, !tbaa !58
  %47 = load ptr, ptr %10, align 8, !tbaa !58
  %48 = load ptr, ptr %9, align 8, !tbaa !58
  %49 = call ptr @Cudd_bddIte(ptr noundef %45, ptr noundef %46, ptr noundef %47, ptr noundef %48)
  %50 = load ptr, ptr %6, align 8, !tbaa !3
  %51 = getelementptr inbounds nuw %struct.Abc_Obj_t_, ptr %50, i32 0, i32 6
  store ptr %49, ptr %51, align 8, !tbaa !60
  %52 = load ptr, ptr %6, align 8, !tbaa !3
  %53 = getelementptr inbounds nuw %struct.Abc_Obj_t_, ptr %52, i32 0, i32 6
  %54 = load ptr, ptr %53, align 8, !tbaa !60
  call void @Cudd_Ref(ptr noundef %54)
  %55 = load ptr, ptr %5, align 8, !tbaa !56
  %56 = load ptr, ptr %9, align 8, !tbaa !58
  call void @Cudd_RecursiveDeref(ptr noundef %55, ptr noundef %56)
  %57 = load ptr, ptr %3, align 8, !tbaa !41
  %58 = call ptr @Abc_NtkCreateNode(ptr noundef %57)
  store ptr %58, ptr %7, align 8, !tbaa !3
  %59 = load ptr, ptr %7, align 8, !tbaa !3
  %60 = load ptr, ptr %4, align 8, !tbaa !53
  %61 = getelementptr inbounds ptr, ptr %60, i64 0
  %62 = load ptr, ptr %61, align 8, !tbaa !3
  call void @Abc_ObjAddFanin(ptr noundef %59, ptr noundef %62)
  %63 = load ptr, ptr %7, align 8, !tbaa !3
  %64 = load ptr, ptr %6, align 8, !tbaa !3
  call void @Abc_ObjAddFanin(ptr noundef %63, ptr noundef %64)
  %65 = load ptr, ptr %7, align 8, !tbaa !3
  %66 = load ptr, ptr %4, align 8, !tbaa !53
  %67 = getelementptr inbounds ptr, ptr %66, i64 4
  %68 = load ptr, ptr %67, align 8, !tbaa !3
  call void @Abc_ObjAddFanin(ptr noundef %65, ptr noundef %68)
  %69 = load ptr, ptr %7, align 8, !tbaa !3
  %70 = load ptr, ptr %4, align 8, !tbaa !53
  %71 = getelementptr inbounds ptr, ptr %70, i64 5
  %72 = load ptr, ptr %71, align 8, !tbaa !3
  call void @Abc_ObjAddFanin(ptr noundef %69, ptr noundef %72)
  %73 = load ptr, ptr %5, align 8, !tbaa !56
  %74 = call ptr @Cudd_bddIthVar(ptr noundef %73, i32 noundef 0)
  store ptr %74, ptr %8, align 8, !tbaa !58
  %75 = load ptr, ptr %5, align 8, !tbaa !56
  %76 = call ptr @Cudd_bddIthVar(ptr noundef %75, i32 noundef 1)
  store ptr %76, ptr %9, align 8, !tbaa !58
  %77 = load ptr, ptr %5, align 8, !tbaa !56
  %78 = load ptr, ptr %5, align 8, !tbaa !56
  %79 = call ptr @Cudd_bddIthVar(ptr noundef %78, i32 noundef 1)
  %80 = load ptr, ptr %5, align 8, !tbaa !56
  %81 = call ptr @Cudd_bddIthVar(ptr noundef %80, i32 noundef 3)
  %82 = load ptr, ptr %5, align 8, !tbaa !56
  %83 = call ptr @Cudd_bddIthVar(ptr noundef %82, i32 noundef 2)
  %84 = call ptr @Cudd_bddIte(ptr noundef %77, ptr noundef %79, ptr noundef %81, ptr noundef %83)
  store ptr %84, ptr %10, align 8, !tbaa !58
  %85 = load ptr, ptr %10, align 8, !tbaa !58
  call void @Cudd_Ref(ptr noundef %85)
  %86 = load ptr, ptr %5, align 8, !tbaa !56
  %87 = load ptr, ptr %8, align 8, !tbaa !58
  %88 = load ptr, ptr %10, align 8, !tbaa !58
  %89 = load ptr, ptr %9, align 8, !tbaa !58
  %90 = call ptr @Cudd_bddIte(ptr noundef %86, ptr noundef %87, ptr noundef %88, ptr noundef %89)
  %91 = load ptr, ptr %7, align 8, !tbaa !3
  %92 = getelementptr inbounds nuw %struct.Abc_Obj_t_, ptr %91, i32 0, i32 6
  store ptr %90, ptr %92, align 8, !tbaa !60
  %93 = load ptr, ptr %7, align 8, !tbaa !3
  %94 = getelementptr inbounds nuw %struct.Abc_Obj_t_, ptr %93, i32 0, i32 6
  %95 = load ptr, ptr %94, align 8, !tbaa !60
  call void @Cudd_Ref(ptr noundef %95)
  %96 = load ptr, ptr %5, align 8, !tbaa !56
  %97 = load ptr, ptr %10, align 8, !tbaa !58
  call void @Cudd_RecursiveDeref(ptr noundef %96, ptr noundef %97)
  %98 = load ptr, ptr %7, align 8, !tbaa !3
  call void @llvm.lifetime.end.p0(i64 8, ptr %10) #12
  call void @llvm.lifetime.end.p0(i64 8, ptr %9) #12
  call void @llvm.lifetime.end.p0(i64 8, ptr %8) #12
  call void @llvm.lifetime.end.p0(i64 8, ptr %7) #12
  call void @llvm.lifetime.end.p0(i64 8, ptr %6) #12
  call void @llvm.lifetime.end.p0(i64 8, ptr %5) #12
  ret ptr %98
}