; Function Attrs: nounwind uwtable
define noundef ptr @Abc_NtkBddMux412(ptr noundef %0, ptr noundef readonly captures(none) %1) local_unnamed_addr #0 {
  %3 = getelementptr inbounds nuw i8, ptr %0, i64 256
  %4 = load ptr, ptr %3, align 8, !tbaa !48
  %5 = tail call ptr @Abc_NtkCreateObj(ptr noundef %0, i32 noundef 7) #20
  %6 = load ptr, ptr %1, align 8, !tbaa !49
  tail call void @Abc_ObjAddFanin(ptr noundef %5, ptr noundef %6) #20
  %7 = getelementptr inbounds nuw i8, ptr %1, i64 8
  %8 = load ptr, ptr %7, align 8, !tbaa !49
  tail call void @Abc_ObjAddFanin(ptr noundef %5, ptr noundef %8) #20
  %9 = getelementptr inbounds nuw i8, ptr %1, i64 16
  %10 = load ptr, ptr %9, align 8, !tbaa !49
  tail call void @Abc_ObjAddFanin(ptr noundef %5, ptr noundef %10) #20
  %11 = getelementptr inbounds nuw i8, ptr %1, i64 24
  %12 = load ptr, ptr %11, align 8, !tbaa !49
  tail call void @Abc_ObjAddFanin(ptr noundef %5, ptr noundef %12) #20
  %13 = tail call ptr @Cudd_bddIthVar(ptr noundef %4, i32 noundef 0) #20
  %14 = tail call ptr @Cudd_bddIthVar(ptr noundef %4, i32 noundef 1) #20
  %15 = tail call ptr @Cudd_bddIthVar(ptr noundef %4, i32 noundef 3) #20
  %16 = tail call ptr @Cudd_bddIthVar(ptr noundef %4, i32 noundef 2) #20
  %17 = tail call ptr @Cudd_bddIte(ptr noundef %4, ptr noundef %14, ptr noundef %15, ptr noundef %16) #20
  tail call void @Cudd_Ref(ptr noundef %17) #20
  %18 = tail call ptr @Cudd_bddIthVar(ptr noundef %4, i32 noundef 1) #20
  %19 = tail call ptr @Cudd_bddIte(ptr noundef %4, ptr noundef %13, ptr noundef %18, ptr noundef %17) #20
  %20 = getelementptr inbounds nuw i8, ptr %5, i64 56
  store ptr %19, ptr %20, align 8, !tbaa !50
  tail call void @Cudd_Ref(ptr noundef %19) #20
  tail call void @Cudd_RecursiveDeref(ptr noundef %4, ptr noundef %17) #20
  %21 = tail call ptr @Abc_NtkCreateObj(ptr noundef %0, i32 noundef 7) #20
  %22 = load ptr, ptr %1, align 8, !tbaa !49
  tail call void @Abc_ObjAddFanin(ptr noundef %21, ptr noundef %22) #20
  tail call void @Abc_ObjAddFanin(ptr noundef %21, ptr noundef %5) #20
  %23 = getelementptr inbounds nuw i8, ptr %1, i64 32
  %24 = load ptr, ptr %23, align 8, !tbaa !49
  tail call void @Abc_ObjAddFanin(ptr noundef %21, ptr noundef %24) #20
  %25 = getelementptr inbounds nuw i8, ptr %1, i64 40
  %26 = load ptr, ptr %25, align 8, !tbaa !49
  tail call void @Abc_ObjAddFanin(ptr noundef %21, ptr noundef %26) #20
  %27 = tail call ptr @Cudd_bddIthVar(ptr noundef %4, i32 noundef 0) #20
  %28 = tail call ptr @Cudd_bddIthVar(ptr noundef %4, i32 noundef 1) #20
  %29 = tail call ptr @Cudd_bddIthVar(ptr noundef %4, i32 noundef 1) #20
  %30 = tail call ptr @Cudd_bddIthVar(ptr noundef %4, i32 noundef 3) #20
  %31 = tail call ptr @Cudd_bddIthVar(ptr noundef %4, i32 noundef 2) #20
  %32 = tail call ptr @Cudd_bddIte(ptr noundef %4, ptr noundef %29, ptr noundef %30, ptr noundef %31) #20
  tail call void @Cudd_Ref(ptr noundef %32) #20
  %33 = tail call ptr @Cudd_bddIte(ptr noundef %4, ptr noundef %27, ptr noundef %32, ptr noundef %28) #20
  %34 = getelementptr inbounds nuw i8, ptr %21, i64 56
  store ptr %33, ptr %34, align 8, !tbaa !50
  tail call void @Cudd_Ref(ptr noundef %33) #20
  tail call void @Cudd_RecursiveDeref(ptr noundef %4, ptr noundef %32) #20
  ret ptr %21
}